target datalayout = "e-m:e-p270:32:32-p271:32:32-p272:64:64-i64:64-i128:128-f80:128-n8:16:32:64-S128"
target triple = "x86_64-pc-linux-gnu"

%struct.AVFilterContext = type { ptr, ptr, ptr, ptr, ptr, i32, ptr, ptr, i32, ptr, ptr, i32, i32, ptr, ptr, ptr, ptr, i32, ptr, i32, i32 }
%struct.HueContext = type { ptr, float, float, ptr, ptr, ptr, ptr, float, ptr, ptr, float, ptr, ptr, i32, i32, i32, i32, i32, [5 x double], [256 x i8], [256 x [256 x i8]], [256 x [256 x i8]], [65536 x i16], [1024 x [1024 x i16]], [1024 x [1024 x i16]] }
%struct.AVFilterLink = type { ptr, ptr, ptr, ptr, i32, i32, i32, i32, %struct.AVRational, i32, i32, i32, %struct.AVChannelLayout, %struct.AVRational, ptr, i32, %struct.AVFilterFormatsConfig, %struct.AVFilterFormatsConfig }
%struct.AVChannelLayout = type { i32, i32, %union.anon.1, ptr }
%union.anon.1 = type { i64 }
%struct.AVRational = type { i32, i32 }
%struct.AVFilterFormatsConfig = type { ptr, ptr, ptr, ptr, ptr }
%struct.AVPixFmtDescriptor = type { ptr, i8, i8, i8, i64, [4 x %struct.AVComponentDescriptor], ptr }
%struct.AVComponentDescriptor = type { i32, i32, i32, i32, i32 }
%struct.FilterLink = type { %struct.AVFilterLink, ptr, i64, i64, i32, i32, i64, i64, i64, i64, %struct.AVRational, ptr }

; Function Attrs: inlinehint nounwind uwtable
define internal double @av_q2d(i64 %0) #3 {
  %2 = alloca %struct.AVRational, align 4
  store i64 %0, ptr %2, align 4
  %3 = getelementptr inbounds nuw %struct.AVRational, ptr %2, i32 0, i32 0
  %4 = load i32, ptr %3, align 4, !tbaa !84
  %5 = sitofp i32 %4 to double
  %6 = getelementptr inbounds nuw %struct.AVRational, ptr %2, i32 0, i32 1
  %7 = load i32, ptr %6, align 4, !tbaa !85
  %8 = sitofp i32 %7 to double
  %9 = fdiv nsz double %5, %8
  ret double %9
}

; Function Attrs: inlinehint nounwind uwtable
define internal ptr @ff_filter_link(ptr noundef %0) #3 {
  %2 = alloca ptr, align 8
  store ptr %0, ptr %2, align 8, !tbaa !38
  %3 = load ptr, ptr %2, align 8, !tbaa !38
  ret ptr %3
}

; Function Attrs: nounwind uwtable
define internal i32 @config_props(ptr noundef %0) #1 {
  %2 = alloca ptr, align 8
  %3 = alloca ptr, align 8
  %4 = alloca ptr, align 8
  %5 = alloca ptr, align 8
  store ptr %0, ptr %2, align 8, !tbaa !38
  call void @llvm.lifetime.start.p0(i64 8, ptr %3) #9
  %6 = load ptr, ptr %2, align 8, !tbaa !38
  %7 = getelementptr inbounds nuw %struct.AVFilterLink, ptr %6, i32 0, i32 2
  %8 = load ptr, ptr %7, align 8, !tbaa !44
  %9 = getelementptr inbounds nuw %struct.AVFilterContext, ptr %8, i32 0, i32 9
  %10 = load ptr, ptr %9, align 8, !tbaa !9
  store ptr %10, ptr %3, align 8, !tbaa !22
  call void @llvm.lifetime.start.p0(i64 8, ptr %4) #9
  %11 = load ptr, ptr %2, align 8, !tbaa !38
  %12 = call ptr @ff_filter_link(ptr noundef %11)
  store ptr %12, ptr %4, align 8, !tbaa !42
  call void @llvm.lifetime.start.p0(i64 8, ptr %5) #9
  %13 = load ptr, ptr %2, align 8, !tbaa !38
  %14 = getelementptr inbounds nuw %struct.AVFilterLink, ptr %13, i32 0, i32 5
  %15 = load i32, ptr %14, align 4, !tbaa !57
  %16 = call ptr @av_pix_fmt_desc_get(i32 noundef %15)
  store ptr %16, ptr %5, align 8, !tbaa !58
  %17 = load ptr, ptr %5, align 8, !tbaa !58
  %18 = getelementptr inbounds nuw %struct.AVPixFmtDescriptor, ptr %17, i32 0, i32 2
  %19 = load i8, ptr %18, align 1, !tbaa !79
  %20 = zext i8 %19 to i32
  %21 = load ptr, ptr %3, align 8, !tbaa !22
  %22 = getelementptr inbounds nuw %struct.HueContext, ptr %21, i32 0, i32 13
  store i32 %20, ptr %22, align 8, !tbaa !77
  %23 = load ptr, ptr %5, align 8, !tbaa !58
  %24 = getelementptr inbounds nuw %struct.AVPixFmtDescriptor, ptr %23, i32 0, i32 3
  %25 = load i8, ptr %24, align 2, !tbaa !81
  %26 = zext i8 %25 to i32
  %27 = load ptr, ptr %3, align 8, !tbaa !22
  %28 = getelementptr inbounds nuw %struct.HueContext, ptr %27, i32 0, i32 14
  store i32 %26, ptr %28, align 4, !tbaa !78
  %29 = load ptr, ptr %3, align 8, !tbaa !22
  %30 = getelementptr inbounds nuw %struct.HueContext, ptr %29, i32 0, i32 18
  %31 = getelementptr inbounds [5 x double], ptr %30, i64 0, i64 0
  store double 0.000000e+00, ptr %31, align 8, !tbaa !67
  %32 = load ptr, ptr %2, align 8, !tbaa !38
  %33 = getelementptr inbounds nuw %struct.AVFilterLink, ptr %32, i32 0, i32 13
  %34 = load i64, ptr %33, align 8
  %35 = call nsz double @av_q2d(i64 %34)
  %36 = load ptr, ptr %3, align 8, !tbaa !22
  %37 = getelementptr inbounds nuw %struct.HueContext, ptr %36, i32 0, i32 18
  %38 = getelementptr inbounds [5 x double], ptr %37, i64 0, i64 4
  store double %35, ptr %38, align 8, !tbaa !67
  %39 = load ptr, ptr %4, align 8, !tbaa !42
  %40 = getelementptr inbounds nuw %struct.FilterLink, ptr %39, i32 0, i32 10
  %41 = getelementptr inbounds nuw %struct.AVRational, ptr %40, i32 0, i32 0
  %42 = load i32, ptr %41, align 8, !tbaa !82
  %43 = icmp eq i32 %42, 0
  br i1 %43, label %50, label %44

44:                                               ; preds = %1
  %45 = load ptr, ptr %4, align 8, !tbaa !42
  %46 = getelementptr inbounds nuw %struct.FilterLink, ptr %45, i32 0, i32 10
  %47 = getelementptr inbounds nuw %struct.AVRational, ptr %46, i32 0, i32 1
  %48 = load i32, ptr %47, align 4, !tbaa !83
  %49 = icmp eq i32 %48, 0
  br i1 %49, label %50, label %51

50:                                               ; preds = %44, %1
  br label %56

51:                                               ; preds = %44
  %52 = load ptr, ptr %4, align 8, !tbaa !42
  %53 = getelementptr inbounds nuw %struct.FilterLink, ptr %52, i32 0, i32 10
  %54 = load i64, ptr %53, align 8
  %55 = call nsz double @av_q2d(i64 %54)
  br label %56

56:                                               ; preds = %51, %50
  %57 = phi nsz double [ 0x7FF8000000000000, %50 ], [ %55, %51 ]
  %58 = load ptr, ptr %3, align 8, !tbaa !22
  %59 = getelementptr inbounds nuw %struct.HueContext, ptr %58, i32 0, i32 18
  %60 = getelementptr inbounds [5 x double], ptr %59, i64 0, i64 2
  store double %57, ptr %60, align 8, !tbaa !67
  call void @llvm.lifetime.end.p0(i64 8, ptr %5) #9
  call void @llvm.lifetime.end.p0(i64 8, ptr %4) #9
  call void @llvm.lifetime.end.p0(i64 8, ptr %3) #9
  ret i32 0
}