; Function Attrs: nounwind uwtable
define internal noundef i32 @config_props(ptr noundef readonly captures(none) %0) #1 {
  %2 = getelementptr inbounds nuw i8, ptr %0, i64 16
  %3 = load ptr, ptr %2, align 8, !tbaa !38
  %4 = getelementptr inbounds nuw i8, ptr %3, i64 72
  %5 = load ptr, ptr %4, align 8, !tbaa !4
  %6 = getelementptr inbounds nuw i8, ptr %0, i64 36
  %7 = load i32, ptr %6, align 4, !tbaa !51
  %8 = tail call ptr @av_pix_fmt_desc_get(i32 noundef %7) #6
  %9 = getelementptr inbounds nuw i8, ptr %8, i64 9
  %10 = load i8, ptr %9, align 1, !tbaa !89
  %11 = zext i8 %10 to i32
  %12 = getelementptr inbounds nuw i8, ptr %5, i64 96
  store i32 %11, ptr %12, align 8, !tbaa !79
  %13 = getelementptr inbounds nuw i8, ptr %8, i64 10
  %14 = load i8, ptr %13, align 2, !tbaa !91
  %15 = zext i8 %14 to i32
  %16 = getelementptr inbounds nuw i8, ptr %5, i64 100
  store i32 %15, ptr %16, align 4, !tbaa !80
  %17 = getelementptr inbounds nuw i8, ptr %5, i64 120
  store double 0.000000e+00, ptr %17, align 8, !tbaa !59
  %18 = getelementptr inbounds nuw i8, ptr %0, i64 96
  %19 = load i64, ptr %18, align 8
  %.sroa.0.0.extract.trunc.i = trunc i64 %19 to i32
  %.sroa.2.0.extract.shift.i = lshr i64 %19, 32
  %.sroa.2.0.extract.trunc.i = trunc nuw i64 %.sroa.2.0.extract.shift.i to i32
  %20 = sitofp i32 %.sroa.0.0.extract.trunc.i to double
  %21 = sitofp i32 %.sroa.2.0.extract.trunc.i to double
  %22 = fdiv nsz double %20, %21
  %23 = getelementptr inbounds nuw i8, ptr %5, i64 152
  store double %22, ptr %23, align 8, !tbaa !59
  %24 = getelementptr inbounds nuw i8, ptr %0, i64 264
  %25 = load i32, ptr %24, align 8, !tbaa !92
  %26 = icmp eq i32 %25, 0
  br i1 %26, label %36, label %27

27:                                               ; preds = %1
  %28 = getelementptr inbounds nuw i8, ptr %0, i64 268
  %29 = load i32, ptr %28, align 4, !tbaa !93
  %30 = icmp eq i32 %29, 0
  br i1 %30, label %36, label %31

31:                                               ; preds = %27
  %32 = load i64, ptr %24, align 8
  %.sroa.0.0.extract.trunc.i14 = trunc i64 %32 to i32
  %.sroa.2.0.extract.shift.i15 = lshr i64 %32, 32
  %.sroa.2.0.extract.trunc.i16 = trunc nuw i64 %.sroa.2.0.extract.shift.i15 to i32
  %33 = sitofp i32 %.sroa.0.0.extract.trunc.i14 to double
  %34 = sitofp i32 %.sroa.2.0.extract.trunc.i16 to double
  %35 = fdiv nsz double %33, %34
  br label %36

36:                                               ; preds = %1, %27, %31
  %37 = phi nsz double [ %35, %31 ], [ 0x7FF8000000000000, %27 ], [ 0x7FF8000000000000, %1 ]
  %38 = getelementptr inbounds nuw i8, ptr %5, i64 136
  store double %37, ptr %38, align 8, !tbaa !59
  ret i32 0
}